target datalayout = "e-m:e-p270:32:32-p271:32:32-p272:64:64-i64:64-i128:128-f80:128-n8:16:32:64-S128"
target triple = "x86_64-pc-linux-gnu"

%struct.evhttp_connection = type { %struct.anon, ptr, %struct.event, ptr, i16, ptr, i16, ptr, i64, i64, i32, %struct.timeval, %struct.timeval, %struct.timeval, i32, i32, %struct.timeval, i32, ptr, %struct.evcon_requestq, ptr, ptr, ptr, ptr, %struct.event_callback, ptr, ptr, i32, ptr }
%struct.anon = type { ptr, ptr }
%struct.event = type { %struct.event_callback, %union.anon.1, i32, i16, i16, ptr, %union.anon.3, %struct.timeval }
%union.anon.1 = type { %struct.anon.2 }
%struct.anon.2 = type { ptr, ptr }
%union.anon.3 = type { %struct.anon.4 }
%struct.anon.4 = type { %struct.anon.5, %struct.timeval }
%struct.anon.5 = type { ptr, ptr }
%struct.timeval = type { i64, i64 }
%struct.evcon_requestq = type { ptr, ptr }
%struct.event_callback = type { %struct.anon.0, i16, i8, i8, %union.anon, ptr }
%struct.anon.0 = type { ptr, ptr }
%union.anon = type { ptr }

; Function Attrs: nounwind uwtable
define internal void @evhttp_set_timeout_tv_(ptr noundef %0, ptr noundef %1, i32 noundef %2) #0 {
  %4 = alloca ptr, align 8
  %5 = alloca ptr, align 8
  %6 = alloca i32, align 4
  store ptr %0, ptr %4, align 8
  store ptr %1, ptr %5, align 8
  store i32 %2, ptr %6, align 4
  %7 = load ptr, ptr %5, align 8
  %8 = icmp eq ptr %7, null
  br i1 %8, label %9, label %19

9:                                                ; preds = %3
  %10 = load i32, ptr %6, align 4
  %11 = icmp ne i32 %10, -1
  br i1 %11, label %12, label %19

12:                                               ; preds = %9
  %13 = load i32, ptr %6, align 4
  %14 = sext i32 %13 to i64
  %15 = load ptr, ptr %4, align 8
  %16 = getelementptr inbounds nuw %struct.timeval, ptr %15, i32 0, i32 0
  store i64 %14, ptr %16, align 8
  %17 = load ptr, ptr %4, align 8
  %18 = getelementptr inbounds nuw %struct.timeval, ptr %17, i32 0, i32 1
  store i64 0, ptr %18, align 8
  br label %30

19:                                               ; preds = %9, %3
  %20 = load ptr, ptr %5, align 8
  %21 = icmp ne ptr %20, null
  br i1 %21, label %22, label %25

22:                                               ; preds = %19
  %23 = load ptr, ptr %4, align 8
  %24 = load ptr, ptr %5, align 8
  call void @llvm.memcpy.p0.p0.i64(ptr align 8 %23, ptr align 8 %24, i64 16, i1 false)
  br label %30

25:                                               ; preds = %19
  %26 = load ptr, ptr %4, align 8
  %27 = getelementptr inbounds nuw %struct.timeval, ptr %26, i32 0, i32 1
  store i64 0, ptr %27, align 8
  %28 = load ptr, ptr %4, align 8
  %29 = getelementptr inbounds nuw %struct.timeval, ptr %28, i32 0, i32 0
  store i64 0, ptr %29, align 8
  br label %30

30:                                               ; preds = %12, %25, %22
  ret void
}

; Function Attrs: nounwind uwtable
define void @evhttp_connection_set_timeout_tv(ptr noundef %0, ptr noundef %1) #0 {
  %3 = alloca ptr, align 8
  %4 = alloca ptr, align 8
  store ptr %0, ptr %3, align 8
  store ptr %1, ptr %4, align 8
  %5 = load ptr, ptr %4, align 8
  %6 = icmp ne ptr %5, null
  br i1 %6, label %7, label %12

7:                                                ; preds = %2
  %8 = load ptr, ptr %3, align 8
  %9 = getelementptr inbounds nuw %struct.evhttp_connection, ptr %8, i32 0, i32 10
  %10 = load i32, ptr %9, align 8
  %11 = or i32 %10, 4194304
  store i32 %11, ptr %9, align 8
  br label %17

12:                                               ; preds = %2
  %13 = load ptr, ptr %3, align 8
  %14 = getelementptr inbounds nuw %struct.evhttp_connection, ptr %13, i32 0, i32 10
  %15 = load i32, ptr %14, align 8
  %16 = and i32 %15, -4194305
  store i32 %16, ptr %14, align 8
  br label %17

17:                                               ; preds = %12, %7
  %18 = load ptr, ptr %3, align 8
  %19 = getelementptr inbounds nuw %struct.evhttp_connection, ptr %18, i32 0, i32 12
  %20 = load ptr, ptr %4, align 8
  call void @evhttp_set_timeout_tv_(ptr noundef %19, ptr noundef %20, i32 noundef 50)
  %21 = load ptr, ptr %3, align 8
  %22 = getelementptr inbounds nuw %struct.evhttp_connection, ptr %21, i32 0, i32 13
  %23 = load ptr, ptr %4, align 8
  call void @evhttp_set_timeout_tv_(ptr noundef %22, ptr noundef %23, i32 noundef 50)
  %24 = load ptr, ptr %3, align 8
  %25 = getelementptr inbounds nuw %struct.evhttp_connection, ptr %24, i32 0, i32 1
  %26 = load ptr, ptr %25, align 8
  %27 = load ptr, ptr %3, align 8
  %28 = getelementptr inbounds nuw %struct.evhttp_connection, ptr %27, i32 0, i32 12
  %29 = load ptr, ptr %3, align 8
  %30 = getelementptr inbounds nuw %struct.evhttp_connection, ptr %29, i32 0, i32 13
  %31 = call i32 @bufferevent_set_timeouts(ptr noundef %26, ptr noundef %28, ptr noundef %30)
  ret void
}