; Function Attrs: nounwind uwtable
define void @evhttp_connection_set_timeout_tv(ptr noundef initializes((224, 256)) %0, ptr noundef readonly captures(address_is_null) %1) local_unnamed_addr #0 {
  %.not = icmp eq ptr %1, null
  %3 = getelementptr inbounds nuw i8, ptr %0, i64 200
  %4 = load i32, ptr %3, align 8
  %5 = getelementptr inbounds nuw i8, ptr %0, i64 224
  br i1 %.not, label %.split11, label %evhttp_set_timeout_tv_.exit12

evhttp_set_timeout_tv_.exit12:                    ; preds = %2
  %6 = or i32 %4, 4194304
  store i32 %6, ptr %3, align 8
  tail call void @llvm.memcpy.p0.p0.i64(ptr noundef nonnull align 8 dereferenceable(16) %5, ptr noundef nonnull readonly align 8 dereferenceable(16) %1, i64 16, i1 false)
  %7 = getelementptr inbounds nuw i8, ptr %0, i64 240
  tail call void @llvm.memcpy.p0.p0.i64(ptr noundef nonnull align 8 dereferenceable(16) %7, ptr noundef nonnull readonly align 8 dereferenceable(16) %1, i64 16, i1 false)
  br label %12

.split11:                                         ; preds = %2
  %8 = and i32 %4, -4194305
  store i32 %8, ptr %3, align 8
  store i64 50, ptr %5, align 8
  %9 = getelementptr inbounds nuw i8, ptr %0, i64 232
  store i64 0, ptr %9, align 8
  %10 = getelementptr inbounds nuw i8, ptr %0, i64 240
  store i64 50, ptr %10, align 8
  %11 = getelementptr inbounds nuw i8, ptr %0, i64 248
  store i64 0, ptr %11, align 8
  br label %12

12:                                               ; preds = %.split11, %evhttp_set_timeout_tv_.exit12
  %13 = phi ptr [ %7, %evhttp_set_timeout_tv_.exit12 ], [ %10, %.split11 ]
  %14 = getelementptr inbounds nuw i8, ptr %0, i64 16
  %15 = load ptr, ptr %14, align 8
  %16 = tail call i32 @bufferevent_set_timeouts(ptr noundef %15, ptr noundef nonnull %5, ptr noundef nonnull %13) #18
  ret void
}